target datalayout = "e-m:e-p270:32:32-p271:32:32-p272:64:64-i64:64-i128:128-f80:128-n8:16:32:64-S128"
target triple = "x86_64-pc-linux-gnu"

%struct.MVDependency = type { double, i16, [0 x i16] }
%struct.MVDependencies = type { i32, i32, i32, [0 x ptr] }
%struct.anon = type { i32, [0 x i8] }

; Function Attrs: nounwind uwtable
define dso_local ptr @statext_dependencies_serialize(ptr noundef %0) #0 {
  %2 = alloca ptr, align 8
  %3 = alloca i32, align 4
  %4 = alloca ptr, align 8
  %5 = alloca ptr, align 8
  %6 = alloca i64, align 8
  %7 = alloca ptr, align 8
  store ptr %0, ptr %2, align 8
  call void @llvm.lifetime.start.p0(i64 4, ptr %3) #8
  call void @llvm.lifetime.start.p0(i64 8, ptr %4) #8
  call void @llvm.lifetime.start.p0(i64 8, ptr %5) #8
  call void @llvm.lifetime.start.p0(i64 8, ptr %6) #8
  store i64 16, ptr %6, align 8
  store i32 0, ptr %3, align 4
  br label %8

8:                                                ; preds = %30, %1
  %9 = load i32, ptr %3, align 4
  %10 = load ptr, ptr %2, align 8
  %11 = getelementptr inbounds nuw %struct.MVDependencies, ptr %10, i32 0, i32 2
  %12 = load i32, ptr %11, align 8
  %13 = icmp ult i32 %9, %12
  br i1 %13, label %14, label %33

14:                                               ; preds = %8
  %15 = load ptr, ptr %2, align 8
  %16 = getelementptr inbounds nuw %struct.MVDependencies, ptr %15, i32 0, i32 3
  %17 = load i32, ptr %3, align 4
  %18 = sext i32 %17 to i64
  %19 = getelementptr inbounds [0 x ptr], ptr %16, i64 0, i64 %18
  %20 = load ptr, ptr %19, align 8
  %21 = getelementptr inbounds nuw %struct.MVDependency, ptr %20, i32 0, i32 1
  %22 = load i16, ptr %21, align 8
  %23 = sext i16 %22 to i32
  %24 = add i32 1, %23
  %25 = sext i32 %24 to i64
  %26 = mul i64 2, %25
  %27 = add i64 8, %26
  %28 = load i64, ptr %6, align 8
  %29 = add i64 %28, %27
  store i64 %29, ptr %6, align 8
  br label %30

30:                                               ; preds = %14
  %31 = load i32, ptr %3, align 4
  %32 = add i32 %31, 1
  store i32 %32, ptr %3, align 4
  br label %8, !llvm.loop !11

33:                                               ; preds = %8
  %34 = load i64, ptr %6, align 8
  %35 = call ptr @palloc0(i64 noundef %34)
  store ptr %35, ptr %4, align 8
  %36 = load i64, ptr %6, align 8
  %37 = trunc i64 %36 to i32
  %38 = shl i32 %37, 2
  %39 = load ptr, ptr %4, align 8
  %40 = getelementptr inbounds nuw %struct.anon, ptr %39, i32 0, i32 0
  store i32 %38, ptr %40, align 4
  %41 = load ptr, ptr %4, align 8
  %42 = getelementptr inbounds nuw %struct.anon, ptr %41, i32 0, i32 1
  %43 = getelementptr inbounds [0 x i8], ptr %42, i64 0, i64 0
  store ptr %43, ptr %5, align 8
  %44 = load ptr, ptr %5, align 8
  %45 = load ptr, ptr %2, align 8
  %46 = getelementptr inbounds nuw %struct.MVDependencies, ptr %45, i32 0, i32 0
  call void @llvm.memcpy.p0.p0.i64(ptr align 1 %44, ptr align 8 %46, i64 4, i1 false)
  %47 = load ptr, ptr %5, align 8
  %48 = getelementptr inbounds nuw i8, ptr %47, i64 4
  store ptr %48, ptr %5, align 8
  %49 = load ptr, ptr %5, align 8
  %50 = load ptr, ptr %2, align 8
  %51 = getelementptr inbounds nuw %struct.MVDependencies, ptr %50, i32 0, i32 1
  call void @llvm.memcpy.p0.p0.i64(ptr align 1 %49, ptr align 4 %51, i64 4, i1 false)
  %52 = load ptr, ptr %5, align 8
  %53 = getelementptr inbounds nuw i8, ptr %52, i64 4
  store ptr %53, ptr %5, align 8
  %54 = load ptr, ptr %5, align 8
  %55 = load ptr, ptr %2, align 8
  %56 = getelementptr inbounds nuw %struct.MVDependencies, ptr %55, i32 0, i32 2
  call void @llvm.memcpy.p0.p0.i64(ptr align 1 %54, ptr align 8 %56, i64 4, i1 false)
  %57 = load ptr, ptr %5, align 8
  %58 = getelementptr inbounds nuw i8, ptr %57, i64 4
  store ptr %58, ptr %5, align 8
  store i32 0, ptr %3, align 4
  br label %59

59:                                               ; preds = %98, %33
  %60 = load i32, ptr %3, align 4
  %61 = load ptr, ptr %2, align 8
  %62 = getelementptr inbounds nuw %struct.MVDependencies, ptr %61, i32 0, i32 2
  %63 = load i32, ptr %62, align 8
  %64 = icmp ult i32 %60, %63
  br i1 %64, label %65, label %101

65:                                               ; preds = %59
  call void @llvm.lifetime.start.p0(i64 8, ptr %7) #8
  %66 = load ptr, ptr %2, align 8
  %67 = getelementptr inbounds nuw %struct.MVDependencies, ptr %66, i32 0, i32 3
  %68 = load i32, ptr %3, align 4
  %69 = sext i32 %68 to i64
  %70 = getelementptr inbounds [0 x ptr], ptr %67, i64 0, i64 %69
  %71 = load ptr, ptr %70, align 8
  store ptr %71, ptr %7, align 8
  %72 = load ptr, ptr %5, align 8
  %73 = load ptr, ptr %7, align 8
  %74 = getelementptr inbounds nuw %struct.MVDependency, ptr %73, i32 0, i32 0
  call void @llvm.memcpy.p0.p0.i64(ptr align 1 %72, ptr align 8 %74, i64 8, i1 false)
  %75 = load ptr, ptr %5, align 8
  %76 = getelementptr inbounds nuw i8, ptr %75, i64 8
  store ptr %76, ptr %5, align 8
  %77 = load ptr, ptr %5, align 8
  %78 = load ptr, ptr %7, align 8
  %79 = getelementptr inbounds nuw %struct.MVDependency, ptr %78, i32 0, i32 1
  call void @llvm.memcpy.p0.p0.i64(ptr align 1 %77, ptr align 8 %79, i64 2, i1 false)
  %80 = load ptr, ptr %5, align 8
  %81 = getelementptr inbounds nuw i8, ptr %80, i64 2
  store ptr %81, ptr %5, align 8
  %82 = load ptr, ptr %5, align 8
  %83 = load ptr, ptr %7, align 8
  %84 = getelementptr inbounds nuw %struct.MVDependency, ptr %83, i32 0, i32 2
  %85 = getelementptr inbounds [0 x i16], ptr %84, i64 0, i64 0
  %86 = load ptr, ptr %7, align 8
  %87 = getelementptr inbounds nuw %struct.MVDependency, ptr %86, i32 0, i32 1
  %88 = load i16, ptr %87, align 8
  %89 = sext i16 %88 to i64
  %90 = mul i64 2, %89
  call void @llvm.memcpy.p0.p0.i64(ptr align 1 %82, ptr align 2 %85, i64 %90, i1 false)
  %91 = load ptr, ptr %7, align 8
  %92 = getelementptr inbounds nuw %struct.MVDependency, ptr %91, i32 0, i32 1
  %93 = load i16, ptr %92, align 8
  %94 = sext i16 %93 to i64
  %95 = mul i64 2, %94
  %96 = load ptr, ptr %5, align 8
  %97 = getelementptr inbounds nuw i8, ptr %96, i64 %95
  store ptr %97, ptr %5, align 8
  call void @llvm.lifetime.end.p0(i64 8, ptr %7) #8
  br label %98

98:                                               ; preds = %65
  %99 = load i32, ptr %3, align 4
  %100 = add i32 %99, 1
  store i32 %100, ptr %3, align 4
  br label %59, !llvm.loop !12

101:                                              ; preds = %59
  %102 = load ptr, ptr %4, align 8
  call void @llvm.lifetime.end.p0(i64 8, ptr %6) #8
  call void @llvm.lifetime.end.p0(i64 8, ptr %5) #8
  call void @llvm.lifetime.end.p0(i64 8, ptr %4) #8
  call void @llvm.lifetime.end.p0(i64 4, ptr %3) #8
  ret ptr %102
}