; Function Attrs: nounwind uwtable
define dso_local noundef ptr @statext_dependencies_serialize(ptr noundef readonly captures(none) %0) local_unnamed_addr #0 {
  %2 = getelementptr inbounds nuw i8, ptr %0, i64 8
  %3 = load i32, ptr %2, align 8
  %.not = icmp eq i32 %3, 0
  br i1 %.not, label %._crit_edge, label %.lr.ph

.lr.ph:                                           ; preds = %1
  %4 = getelementptr inbounds nuw i8, ptr %0, i64 16
  br label %5

5:                                                ; preds = %.lr.ph, %5
  %.038 = phi i32 [ 0, %.lr.ph ], [ %15, %5 ]
  %.03537 = phi i64 [ 16, %.lr.ph ], [ %14, %5 ]
  %6 = sext i32 %.038 to i64
  %7 = getelementptr inbounds [0 x ptr], ptr %4, i64 0, i64 %6
  %8 = load ptr, ptr %7, align 8
  %9 = getelementptr inbounds nuw i8, ptr %8, i64 8
  %10 = load i16, ptr %9, align 8
  %11 = sext i16 %10 to i64
  %12 = shl nsw i64 %11, 1
  %13 = add i64 %.03537, 10
  %14 = add i64 %13, %12
  %15 = add nuw i32 %.038, 1
  %exitcond.not = icmp eq i32 %15, %3
  br i1 %exitcond.not, label %._crit_edge, label %5, !llvm.loop !11

._crit_edge:                                      ; preds = %5, %1
  %.035.lcssa = phi i64 [ 16, %1 ], [ %14, %5 ]
  %16 = tail call ptr @palloc0(i64 noundef %.035.lcssa) #8
  %17 = trunc i64 %.035.lcssa to i32
  %18 = shl i32 %17, 2
  store i32 %18, ptr %16, align 4
  %19 = getelementptr inbounds nuw i8, ptr %16, i64 4
  %20 = load i32, ptr %0, align 8
  store i32 %20, ptr %19, align 1
  %21 = getelementptr inbounds nuw i8, ptr %16, i64 8
  %22 = getelementptr inbounds nuw i8, ptr %0, i64 4
  %23 = load i32, ptr %22, align 4
  store i32 %23, ptr %21, align 1
  %24 = getelementptr inbounds nuw i8, ptr %16, i64 12
  %25 = load i32, ptr %2, align 8
  store i32 %25, ptr %24, align 1
  %26 = load i32, ptr %2, align 8
  %.not44 = icmp eq i32 %26, 0
  br i1 %.not44, label %._crit_edge43, label %.lr.ph42

.lr.ph42:                                         ; preds = %._crit_edge
  %27 = getelementptr inbounds nuw i8, ptr %16, i64 16
  %28 = getelementptr inbounds nuw i8, ptr %0, i64 16
  br label %29

29:                                               ; preds = %.lr.ph42, %29
  %.140 = phi i32 [ 0, %.lr.ph42 ], [ %46, %29 ]
  %.03639 = phi ptr [ %27, %.lr.ph42 ], [ %45, %29 ]
  %30 = sext i32 %.140 to i64
  %31 = getelementptr inbounds [0 x ptr], ptr %28, i64 0, i64 %30
  %32 = load ptr, ptr %31, align 8
  %33 = load i64, ptr %32, align 8
  store i64 %33, ptr %.03639, align 1
  %34 = getelementptr inbounds nuw i8, ptr %.03639, i64 8
  %35 = getelementptr inbounds nuw i8, ptr %32, i64 8
  %36 = load i16, ptr %35, align 8
  store i16 %36, ptr %34, align 1
  %37 = getelementptr inbounds nuw i8, ptr %.03639, i64 10
  %38 = getelementptr inbounds nuw i8, ptr %32, i64 10
  %39 = load i16, ptr %35, align 8
  %40 = sext i16 %39 to i64
  %41 = shl nsw i64 %40, 1
  tail call void @llvm.memcpy.p0.p0.i64(ptr nonnull align 1 %37, ptr nonnull align 2 %38, i64 %41, i1 false)
  %42 = load i16, ptr %35, align 8
  %43 = sext i16 %42 to i64
  %44 = shl nsw i64 %43, 1
  %45 = getelementptr inbounds nuw i8, ptr %37, i64 %44
  %46 = add nuw i32 %.140, 1
  %47 = load i32, ptr %2, align 8
  %48 = icmp ult i32 %46, %47
  br i1 %48, label %29, label %._crit_edge43, !llvm.loop !12

._crit_edge43:                                    ; preds = %29, %._crit_edge
  ret ptr %16
}